(lp1
(lp2
F0.99727009731943717
aF0.99490273120018602
aa(lp3
F0.99821246266699548
aF0.9966355477260419
aa(lp4
F0.99895435261721321
aF0.99803602489691889
aa(lp5
F0.99952866418136332
aF0.99915585734449264
aa(lp6
F0.99996394372701003
aF1.0000399914567288
aa(lp7
F1.0002847892979174
aF1.0007272781469003
aa(lp8
F1.0005122498647241
aF1.001251141810453
aa(lp9
F1.0006642302854702
aF1.0016402053258358
aa(lp10
F1.0007558684181024
aF1.0019188716916008
aa(lp11
F1.0007998888053022
aF1.0021078566164181
aa(lp12
F1.0008069238828619
aF1.0022246696058021
aa(lp13
F1.0007858035951727
aF1.0022840448000085
aa(lp14
F1.0007438129833126
aF1.0022983235593221
aa(lp15
F1.0006869195332837
aF1.0022777920589527
aa(lp16
F1.000619972272959
aF1.0022309775088027
aa(lp17
F1.0005468750878264
aF1.0021649068531766
aa(lp18
F1.0004707367845829
aF1.002085331771243
aa(lp19
F1.0003940004266985
aF1.0019969236601578
aa(lp20
F1.0003185543395561
aF1.0019034420536388
aa(lp21
F1.0002458270251873
aF1.0018078796594863
aa(lp22
F1.000176868029613
aF1.0017125869113135
aa(lp23
F1.0001124166070721
aF1.0016193786402614
aa(lp24
F1.0000529598256409
aF1.0015296251930041
aa(lp25
F0.99999878156883004
aF1.0014443300581455
aa(lp26
F0.9999500037136585
aF1.0013641958200279
aa(lp27
F0.99990662060331348
aF1.0012896800385145
aa(lp28
F0.99986852778700941
aF1.0012210424511734
aa(lp29
F0.9998355458736613
aF1.0011583847178673
aa(lp30
F0.99980744022774659
aF1.001101683768391
aa(lp31
F0.99978393713792701
aF1.0010508196740355
aa(lp32
F0.99976473700174617
aF1.0010055988403064
aa(lp33
F0.99974952499002812
aF1.0009657732119961
aa(lp34
F0.99973797959113153
aF1.0009310560841451
aa(lp35
F0.99972977937662633
aF1.0009011350350416
aa(lp36
F0.99972460828193199
aF1.000875682421519
aa(lp37
F0.99972215964377686
aF1.000854363816744
aa(lp38
F0.99972213921822983
aF1.0008368447176919
aa(lp39
F0.99972426734702313
aF1.0008227958003966
aa(lp40
F0.99972828043386663
aF1.0008118969640682
aa(lp41
F0.99973393185259096
aF1.0008038403641599
aa(lp42
F0.99974099240590097
aF1.0007983326163368
aa(lp43
F0.99974925041562579
aF1.0007950963097136
aa(lp44
F0.99975851152527229
aF1.000793870963673
aa(lp45
F0.99976859828825437
aF1.0007944135269102
aa(lp46
F0.99977934957644765
aF1.000796498519275
aa(lp47
F0.99979061988056472
aF1.0007999178786455
aa(lp48
F0.99980227850079662
aF1.0008044805866356
aa(lp49
F0.99981420870424531
aF1.0008100121244445
aa(lp50
F0.99982630683520879
aF1.0008163537991273
aa(lp51
F0.99983848140590392
aF1.0008233619751667
aa(lp52
F0.99985065222765124
aF1.0008309072566206
aa(lp53
F0.99986274949017717
aF1.0008388736191809
aa(lp54
F0.99987471293073926
aF1.0008471575321021
aa(lp55
F0.9998864910099774
aF1.0008556670860393
aa(lp56
F0.99989804010534256
aF1.0008643211171744
aa(lp57
F0.99990932378595521
aF1.0008730483605279
aa(lp58
F0.99992031207425236
aF1.000881786644958
aa(lp59
F0.99993098082362808
aF1.0008904820983866
aa(lp60
F0.99994131108316808
aF1.0008990884070166
aa(lp61
F0.99995128850372339
aF1.0009075661125511
aa(lp62
F0.99996090284031136
aF1.0009158819439969
aa(lp63
F0.99997014748744695
aF1.0009240082165121
aa(lp64
F0.99997901893598451
aF1.0009319222287147
aa(lp65
F0.99998751647399153
aF1.0009396057518709
aa(lp66
F0.99999564174240907
aF1.0009470445079669
aa(lp67
F1.0000033984463026
aF1.00095422775703
aa(lp68
F1.0000107920023367
aF1.000961147842494
aa(lp69
F1.000017829314833
aF1.0009677998206965
aa(lp70
F1.0000245184786889
aF1.0009741811324635
aa(lp71
F1.0000308685688974
aF1.0009802912416723
aa(lp72
F1.0000368895057763
aF1.0009861314104163
aa(lp73
F1.0000425918035811
aF1.0009917044078693
aa(lp74
F1.0000479864059242
aF1.0009970142477165
aa(lp75
F1.0000530846572131
aF1.0010020660864252
aa(lp76
F1.0000578981541361
aF1.0010068658873363
aa(lp77
F1.0000624383945471
aF1.0010114203872955
aa(lp78
F1.000066717077281
aF1.0010157368748835
aa(lp79
F1.000070745929849
aF1.0010198230802632
aa(lp80
F1.0000745363388712
aF1.0010236870895106
aa(lp81
F1.00007809954751
aF1.0010273372237197
aa(lp82
F1.0000814467601093
aF1.0010307818973236
aa(lp83
F1.0000845887592698
aF1.0010340296016005
aa(lp84
F1.000087536081568
aF1.0010370889688567
aa(lp85
F1.0000902988394555
aF1.001039968367591
aa(lp86
F1.0000928871897969
aF1.0010426761386815
aa(lp87
F1.0000953105631716
aF1.0010452206152973
aa(lp88
F1.0000975775605312
aF1.0010476098589638
aa(lp89
F1.0000996977003669
aF1.0010498516001241
aa(lp90
F1.0001016797145992
aF1.0010519537012448
aa(lp91
F1.0001035304314652
aF1.0010539233445539
aa(lp92
F1.0001052588607764
aF1.001055767947493
aa(lp93
F1.0001068713622321
aF1.0010574940371477
aa(lp94
F1.000108375406465
aF1.0010591086443341
aa(lp95
F1.0001097776237513
aF1.0010606178319961
aa(lp96
F1.0001110840599943
aF1.0010620279583722
aa(lp97
F1.0001123012751019
aF1.0010633444045336
aa(lp98
F1.000113434316823
aF1.0010645735407331
aa(lp99
F1.0001144896759413
aF1.001065719603476
aa(lp100
F1.0001154706412698
aF1.0010667885505558
aa(lp101
F1.0001163821194927
aF1.001067784551551
aa(lp102
F1.0001172307557509
aF1.0010687122738353
aa(lp103
F1.0001180186286589
aF1.0010695763186199
aa(lp104
F1.0001187520866293
aF1.0010703802540546
aa(lp105
F1.000119429919833
aF1.0010711284719123
aa(lp106
F1.0001200609551533
aF1.0010718239347192
aa(lp107
F1.0001206470177095
aF1.0010724710279686
aa(lp108
F1.0001211909822321
aF1.0010730720584657
aa(lp109
F1.0001216927953782
aF1.0010736308153416
aa(lp110
F1.0001221598156809
aF1.001074148592588
aa(lp111
F1.0001225940088079
aF1.0010746302082201
aa(lp112
F1.0001229939704932
aF1.0010750769124199
aa(lp113
F1.0001233651496197
aF1.0010754907584405
aa(lp114
F1.0001237087743902
aF1.0010758760720684
aa(lp115
F1.0001240302809846
aF1.0010762311205792
aa(lp116
F1.0001243231821995
aF1.0010765613511798
aa(lp117
F1.0001245971666166
aF1.0010768684680567
aa(lp118
F1.0001248451498344
aF1.0010771518473816
aa(lp119
F1.0001250802062824
aF1.0010774133479514
aa(lp120
F1.0001252983295161
aF1.0010776573989257
aa(lp121
F1.0001254961802482
aF1.0010778807607996
aa(lp122
F1.0001256763515138
aF1.0010780908687069
aa(lp123
F1.0001258495372241
aF1.0010782814628418
aa(lp124
F1.000126011160845
aF1.0010784589105852
aa(lp125
F1.0001261546931328
aF1.0010786246723764
aa(lp126
F1.0001262805872699
aF1.0010787761972417
aa(lp127
F1.000126399371174
aF1.0010789178333936
aa(lp128
F1.0001265267203192
aF1.0010790469653272
aa(lp129
F1.0001266291140563
aF1.00107916602785
aa(lp130
F1.0001267232006565
aF1.0010792748440658
aa(lp131
F1.000126810318809
aF1.0010793836184351
aa(lp132
F1.00012688966802
aF1.0010794765824331
aa(lp133
F1.0001269793139638
aF1.0010795637128982
aa(lp134
F1.000127054732048
aF1.0010796492871277
aa(lp135
F1.0001271227598034
aF1.0010797162312828
aa(lp136
F1.0001271707957811
aF1.001079785214537
aa(lp137
F1.0001272479400889
aF1.0010798452187009
aa(lp138
F1.0001272437839068
aF1.0010799064573543
aa(lp139
F1.0001273306328906
aF1.0010799565514132
aa(lp140
F1.0001273288189449
aF1.001080015719263
aa(lp141
F1.0001273555223427
aF1.001080064412011
aa(lp142
F1.0001273815600842
aF1.0010800941716886
aa(lp143
F1.0001274781750937
aF1.0010801548169583
aa(lp144
F1.0001275208218485
aF1.0010801758813366
aa(lp145
F1.000127537212202
aF1.0010802190499495
aa(lp146
F1.0001275445640641
aF1.0010802413473638
aa(lp147
F1.000127604738791
aF1.0010802482828494
aa(lp148
F1.0001276440812976
aF1.0010802936632186
aa(lp149
F1.0001277045356598
aF1.0010803280825422
aa(lp150
F1.0001275857369347
aF1.0010803396195218
aa(lp151
F1.0001276118896525
aF1.0010803502848042
aa(lp152
F1.0001275707536303
aF1.0010803866714342
aa.