(lp1
(lp2
F0.26242761788829444
aF0.00088007207645892434
aa(lp3
F0.63700147756369196
aF0.17378090987737763
aa(lp4
F0.67378664145500156
aF0.34752932361499389
aa(lp5
F0.79958867839240455
aF0.4891112012266029
aa(lp6
F0.88447428705898956
aF0.64594632189379064
aa(lp7
F0.97163689065021963
aF0.78988975557470986
aa(lp8
F1.0426519440522342
aF0.91226835412180018
aa(lp9
F1.0821797817897225
aF1.026566479786676
aa(lp10
F1.1150321662686531
aF1.1128827500581593
aa(lp11
F1.1375267886141442
aF1.1733864110627992
aa(lp12
F1.1426567864111834
aF1.2204484385059677
aa(lp13
F1.1377685279163852
aF1.2544886378588644
aa(lp14
F1.1299880423511746
aF1.2733425765608386
aa(lp15
F1.1206016603607138
aF1.2792673547095117
aa(lp16
F1.1088889437880416
aF1.2765651576274493
aa(lp17
F1.0947716305743265
aF1.2689576754085563
aa(lp18
F1.0794351376740476
aF1.2583909367843373
aa(lp19
F1.0643594185720662
aF1.2456376326666228
aa(lp20
F1.0505155879464083
aF1.2311313082681241
aa(lp21
F1.0381830198813726
aF1.2154062741641571
aa(lp22
F1.0271996757476869
aF1.1991039379769868
aa(lp23
F1.0172601809811557
aF1.1828468274484401
aa(lp24
F1.0081250118239242
aF1.1671125767676069
aa(lp25
F0.99969569342365217
aF1.1521757359254683
aa(lp26
F0.99197806450364845
aF1.1381340249917624
aa(lp27
F0.98500967101480563
aF1.1249752406652469
aa(lp28
F0.97880315518833838
aF1.1126430213937841
aa(lp29
F0.97332540318786465
aF1.1010809257255845
aa(lp30
F0.96850666421823661
aF1.0902503434096884
aa(lp31
F0.96426334007791936
aF1.080130773720106
aa(lp32
F0.96051984901149823
aF1.0707112104462648
aa(lp33
F0.95722105652188982
aF1.0619801117502474
aa(lp34
F0.95433315590863121
aF1.0539186011018886
aa(lp35
F0.95183626549712508
aF1.0464983482193848
aa(lp36
F0.94971434954523093
aF1.0396831856080386
aa(lp37
F0.94794728345444035
aF1.0334325167969283
aa(lp38
F0.94650744321512792
aF1.0277048820615773
aa(lp39
F0.94536081171494624
aF1.0224606757157155
aa(lp40
F0.94447093231081192
aF1.0176637111858764
aa(lp41
F0.94380357743287957
aF1.0132817603705186
aa(lp42
F0.94333035937323118
aF1.0092863430367132
aa(lp43
F0.9430303057089664
aF1.0056520999084866
aa(lp44
F0.94288932496494449
aF1.0023560122811812
aa(lp45
F0.94289815768943641
aF0.99937665097759065
aa(lp46
F0.94304971896661816
aF0.99669356063596659
aa(lp47
F0.94333668943255222
aF0.99428683613383351
aa(lp48
F0.94374993527468332
aF0.99213692098282025
aa(lp49
F0.94427798472358571
aF0.99022462923690691
aa(lp50
F0.94490746747060417
aF0.98853135593651476
aa(lp51
F0.94562420258231528
aF0.98703940073546359
aa(lp52
F0.94641451922336861
aF0.98573230297079095
aa(lp53
F0.94726641086675445
aF0.98459508495868808
aa(lp54
F0.94817023198955042
aF0.98361432811966309
aa(lp55
F0.94911880866066223
aF0.98277805693263609
aa(lp56
F0.9501070081819275
aF0.98207546387305644
aa(lp57
F0.95113095475196119
aF0.98149655576272221
aa(lp58
F0.9521871552230633
aF0.98103182172316472
aa(lp59
F0.95327179398519979
aF0.9806720093671204
aa(lp60
F0.954380374378209
aF0.98040805510864693
aa(lp61
F0.95550775542320521
aF0.98023115801518512
aa(lp62
F0.95664850154640391
aF0.98013294305556631
aa(lp63
F0.95779737291789435
aF0.98010563361963643
aa(lp64
F0.95894976140583643
aF0.98014216283374889
aa(lp65
F0.96010192826547414
aF0.98023618398720735
aa(lp66
F0.9612509914483357
aF0.98038198625550432
aa(lp67
F0.96239471285907918
aF0.98057435397478421
aa(lp68
F0.96353119945279508
aF0.98080842409059354
aa(lp69
F0.96465864224821829
aF0.98107958699427777
aa(lp70
F0.96577517712114647
aF0.98138345009551109
aa(lp71
F0.96687888469958339
aF0.98171585473605261
aa(lp72
F0.96796788700093883
aF0.98207291824474807
aa(lp73
F0.96904046999976201
aF0.98245106980659302
aa(lp74
F0.97009516973226695
aF0.98284706038548109
aa(lp75
F0.9711307929144567
aF0.98325794390473498
aa(lp76
F0.97214638065758718
aF0.98368104042180415
aa(lp77
F0.97314114611227476
aF0.98411389698156981
aa(lp78
F0.97411441862311132
aF0.98455425804800367
aa(lp79
F0.97506561287922355
aF0.98500004903833061
aa(lp80
F0.97599422327924545
aF0.98544936962102303
aa(lp81
F0.97689983201726049
aF0.9859004903513372
aa(lp82
F0.97778211764597456
aF0.98635184742754134
aa(lp83
F0.97864085628970987
aF0.98680203380047082
aa(lp84
F0.97947591494710928
aF0.98724978769819782
aa(lp85
F0.98028724075930229
aF0.98769398068411163
aa(lp86
F0.98107485045897758
aF0.98813360681599316
aa(lp87
F0.98183882227767683
aF0.98856777342988811
aa(lp88
F0.98257929022188217
aF0.98899569313929436
aa(lp89
F0.98329643958880342
aF0.98941667647984055
aa(lp90
F0.9839905027189717
aF0.9898301248127187
aa(lp91
F0.98466175466977313
aF0.99023552342415089
aa(lp92
F0.98531050858278102
aF0.99063243487402564
aa(lp93
F0.98593711141717244
aF0.99102049270575676
aa(lp94
F0.98654193979768279
aF0.99139939554806955
aa(lp95
F0.98712539626911655
aF0.99176890161174425
aa(lp96
F0.98768790580340304
aF0.99212882352470722
aa(lp97
F0.98822991260965709
aF0.99247902349720596
aa(lp98
F0.98875187705429834
aF0.99281940879506403
aa(lp99
F0.98925427290061363
aF0.99314992747966979
aa(lp100
F0.98973758466870043
aF0.99347056447496684
aa(lp101
F0.99020230524140174
aF0.99378133785942868
aa(lp102
F0.99064893364549844
aF0.99408229542287474
aa(lp103
F0.99107797297858369
aF0.99437351151186537
aa(lp104
F0.99148992862605012
aF0.9946550840162639
aa(lp105
F0.9918853064192148
aF0.99492713166914726
aa(lp106
F0.99226461121054499
aF0.99518979149383757
aa(lp107
F0.99262834544623002
aF0.99544321646283995
aa(lp108
F0.99297700775827213
aF0.99568757333725189
aa(lp109
F0.99331109210720392
aF0.99592304070950688
aa(lp110
F0.99363108642099096
aF0.99614980714327883
aa(lp111
F0.99393747202536908
aF0.99636806954360657
aa(lp112
F0.99423072257286538
aF0.99657803161703873
aa(lp113
F0.99451130356877515
aF0.99677990248366821
aa(lp114
F0.99477967157935321
aF0.99697389542420933
aa(lp115
F0.99503627387890259
aF0.99716022671905802
aa(lp116
F0.99528154789745937
aF0.99733911463743385
aa(lp117
F0.99551592089339558
aF0.99751077847958702
aa(lp118
F0.99573980969772546
aF0.99767543774423406
aa(lp119
F0.99595362042209556
aF0.99783331139242104
aa(lp120
F0.99615774831134352
aF0.99798461715340514
aa(lp121
F0.99635257761490015
aF0.99812957095352506
aa(lp122
F0.99653848154428903
aF0.99826838636156467
aa(lp123
F0.99671582212958587
aF0.99840127416309155
aa(lp124
F0.99688495039734903
aF0.99852844192058932
aa(lp125
F0.99704620626826712
aF0.99865009365815038
aa(lp126
F0.99719991868867375
aF0.99876642953059791
aa(lp127
F0.99734640567903088
aF0.99887764559200443
aa(lp128
F0.99748597460075039
aF0.99898393358076676
aa(lp129
F0.99761892211743808
aF0.99908548071663472
aa(lp130
F0.99774553445260217
aF0.99918246961706914
aa(lp131
F0.99786608763402995
aF0.9992750781147417
aa(lp132
F0.99798084754507654
aF0.99936347924139757
aa(lp133
F0.99809007027143615
aF0.99944784112735541
aa(lp134
F0.99819400221013288
aF0.99952832698921867
aa(lp135
F0.99829288043120867
aF0.99960509511096907
aa(lp136
F0.99838693273971979
aF0.9996782988442473
aa(lp137
F0.99847637807499512
aF0.99974808665198522
aa(lp138
F0.99856142662765079
aF0.99981460212441342
aa(lp139
F0.99864228023713053
aF0.99987798400183581
aa(lp140
F0.99871913249407795
aF0.99993836629815758
aa(lp141
F0.9987921690052679
aF0.9999958783261057
aa(lp142
F0.99886156778381197
aF1.0000506447809765
aa(lp143
F0.9989274992845425
aF1.0001027858413811
aa(lp144
F0.99899012681020549
aF1.0001524172308571
aa(lp145
F0.9990496067763518
aF1.0001996503579194
aa(lp146
F0.99910608873324347
aF1.0002445923857888
aa(lp147
F0.99915971587363706
aF1.0002873463357118
aa(lp148
F0.9992106251027244
aF1.0003280111915995
aa(lp149
F0.99925894717776931
aF1.0003666820450217
aa(lp150
F0.99930480740765359
aF1.0004034502199428
aa(lp151
F0.99934832479266789
aF1.0004384031076614
aa(lp152
F0.99938961545606708
aF1.0004716254769435
aa.