(lp1
(lp2
F1.0247460826575852
aF1.0010805795621225
aa(lp3
F1.0334528053257717
aF1.0043404666138369
aa(lp4
F1.0391834548319367
aF1.0046805085604837
aa(lp5
F1.0417616164986208
aF1.0020251573633892
aa(lp6
F1.0410892421084852
aF0.99638130189697938
aa(lp7
F1.0370021548411172
aF0.98787025323850464
aa(lp8
F1.0297502479560714
aF0.97664818488212346
aa(lp9
F1.0194180746404204
aF0.96309829243823375
aa(lp10
F1.0061900815781444
aF0.9476637745362595
aa(lp11
F0.99070445203630764
aF0.93075250723219516
aa(lp12
F0.97367754317389243
aF0.91288251579328206
aa(lp13
F0.95556867029976877
aF0.89470897992191301
aa(lp14
F0.93682138272720317
aF0.8768326416343819
aa(lp15
F0.91821942978331983
aF0.859660718360159
aa(lp16
F0.90078825870807977
aF0.84347930932862547
aa(lp17
F0.88532002205986493
aF0.82857355662954302
aa(lp18
F0.87196383018647194
aF0.81517642424853298
aa(lp19
F0.8601399381934236
aF0.80322370602652537
aa(lp20
F0.84893047827048651
aF0.79234828332741958
aa(lp21
F0.83792506157348645
aF0.7825856206657068
aa(lp22
F0.82746432502054579
aF0.77445869912569643
aa(lp23
F0.81844033469798283
aF0.76865891244628537
aa(lp24
F0.81196891790756376
aF0.7657615865946924
aa(lp25
F0.80902421667046975
aF0.76604696353194246
aa(lp26
F0.81013674515004552
aF0.76940751067460644
aa(lp27
F0.81518274268821966
aF0.77532392720361287
aa(lp28
F0.82330200461383085
aF0.78290595597081403
aa(lp29
F0.83297652421526513
aF0.79099936697528328
aa(lp30
F0.84227182921639587
aF0.79836559819877817
aa(lp31
F0.84923347876534272
aF0.80392173082555907
aa(lp32
F0.85236811036355298
aF0.80699365600529582
aa(lp33
F0.85106444104219503
aF0.80748655826891069
aa(lp34
F0.84578634989701429
aF0.80588423114209684
aa(lp35
F0.83795231827290073
aF0.80309889908781573
aa(lp36
F0.82955094140414187
aF0.8002534571238159
aa(lp37
F0.82262143206406335
aF0.79846490230156442
aa(lp38
F0.81873135961885146
aF0.79857452857058997
aa(lp39
F0.81854076707301493
aF0.80080522858045911
aa(lp40
F0.82167859283977029
aF0.804668454987295
aa(lp41
F0.82708261770448077
aF0.80941982745822494
aa(lp42
F0.83346768995003884
aF0.81445146552803094
aa(lp43
F0.8397198811938541
aF0.81939902467363379
aa(lp44
F0.84517779980123442
aF0.8241219270377852
aa(lp45
F0.84974392520792019
aF0.82866018850927003
aa(lp46
F0.85375818837658501
aF0.83319349583622893
aa(lp47
F0.85765140186004218
aF0.83790472129250781
aa(lp48
F0.86152271469313202
aF0.84274099178042317
aa(lp49
F0.8649171699563466
aF0.84725784648737557
aa(lp50
F0.86703142947247858
aF0.85079334187655742
aa(lp51
F0.86730615482272477
aF0.8529665645747444
aa(lp52
F0.86602231590146395
aF0.8541053610236452
aa(lp53
F0.86443249945941625
aF0.85520531707688074
aa(lp54
F0.86429377328368173
aF0.85742274731695678
aa(lp55
F0.86703249573166108
aF0.8614461817177812
aa(lp56
F0.87296940330714379
aF0.86708040317252633
aa(lp57
F0.88105619440621108
aF0.8733518824608848
aa(lp58
F0.88927286384224846
aF0.8790354879475446
aa(lp59
F0.89546878538998242
aF0.88322395559527112
aa(lp60
F0.89831286238922314
aF0.88569050141846206
aa(lp61
F0.89792318713679109
aF0.88696713407198158
aa(lp62
F0.89580605261446378
aF0.88809541950298054
aa(lp63
F0.89410497513050347
aF0.89010358642877163
aa(lp64
F0.89460109988965641
aF0.89349599371465971
aa(lp65
F0.89804815682789163
aF0.89809871593091306
aa(lp66
F0.90406549367274891
aF0.90329941372700917
aa(lp67
F0.91139883562174995
aF0.90836330277406696
aa(lp68
F0.91833871066574269
aF0.91262695180924425
aa(lp69
F0.92325653960378373
aF0.91564618994364544
aa(lp70
F0.92521350021947757
aF0.91736974106171365
aa(lp71
F0.92442116714422562
aF0.9182353836443452
aa(lp72
F0.92227007171091435
aF0.91906248351564113
aa(lp73
F0.92081933446867914
aF0.92074302641819927
aa(lp74
F0.92189591144054228
aF0.92382905639150359
aa(lp75
F0.92617470460230789
aF0.9281898708216102
aa(lp76
F0.93273284847069982
aF0.93298893158800411
aa(lp77
F0.9394319191078222
aF0.93709808403984129
aa(lp78
F0.94403107424555233
aF0.93973293539883507
aa(lp79
F0.94543261257059552
aF0.94089393648212638
aa(lp80
F0.94429436215756557
aF0.94133686500573166
aa(lp81
F0.94260301325580176
aF0.94211760746003215
aa(lp82
F0.94247597225827373
aF0.94398939141312732
aa(lp83
F0.94493507311673486
aF0.94699260269208452
aa(lp84
F0.9493783736364273
aF0.95047326816036271
aa(lp85
F0.95405082181615619
aF0.9535256535335499
aa(lp86
F0.95722609332439534
aF0.95557981589342522
aa(lp87
F0.95831942082636035
aF0.95673299921932986
aa(lp88
F0.95814668559172533
aF0.95760324600682767
aa(lp89
F0.95818213219212833
aF0.95884278000518386
aa(lp90
F0.95944286241961918
aF0.9606899605699043
aa(lp91
F0.96185857193845525
aF0.96287724617310622
aa(lp92
F0.96452748504767694
aF0.96492122317847118
aa(lp93
F0.9665469661597933
aF0.9665222605443442
aa(lp94
F0.9676919560182683
aF0.96774573722701396
aa(lp95
F0.96842332274156662
aF0.96888042491438453
aa(lp96
F0.96934525087400303
aF0.97015384765857315
aa(lp97
F0.97068199209792438
aF0.97157089823090415
aa(lp98
F0.97221220901382954
aF0.97298067157376034
aa(lp99
F0.97359910488105328
aF0.97425445408315448
aa(lp100
F0.97471741205065576
aF0.97538755572485347
aa(lp101
F0.97568517372763408
aF0.97645777232246078
aa(lp102
F0.9766657385604286
aF0.97752550338913813
aa(lp103
F0.97770310824915596
aF0.97858819853161993
aa(lp104
F0.97873414191881636
aF0.97961154767170933
aa(lp105
F0.97969698817953776
aF0.98057707888053536
aa(lp106
F0.98059018491674632
aF0.98149311381731141
aa(lp107
F0.98144514242151748
aF0.98237447932045907
aa(lp108
F0.9822793771174021
aF0.98322584702357074
aa(lp109
F0.98308761476657014
aF0.98404385595874921
aa(lp110
F0.98386094372742849
aF0.98482623448523088
aa(lp111
F0.98459912183670995
aF0.98557465979769243
aa(lp112
F0.98530667259346294
aF0.98629180581112708
aa(lp113
F0.9859862242601154
aF0.98697909521869243
aa(lp114
F0.98663798819450366
aF0.98763716794580114
aa(lp115
F0.98726218411359823
aF0.9882668679061376
aa(lp116
F0.9878598381042476
aF0.98886932320521137
aa(lp117
F0.98843212232208533
aF0.98944562960165439
aa(lp118
F0.98897997019478456
aF0.98999676387870861
aa(lp119
F0.98950421434695268
aF0.99052366384374657
aa(lp120
F0.9900057138521493
aF0.99102726323778101
aa(lp121
F0.99048533084920753
aF0.99150847463396263
aa(lp122
F0.99094389667393146
aF0.99196817946878635
aa(lp123
F0.99138221489341061
aF0.99240723136528564
aa(lp124
F0.99180106845662752
aF0.9928264585011457
aa(lp125
F0.99220121908361081
aF0.99322666327048814
aa(lp126
F0.99258340596635941
aF0.99360862214408374
aa(lp127
F0.99294834598224102
aF0.99397308610450508
aa(lp128
F0.99329673392712903
aF0.99432078104346822
aa(lp129
F0.99362924273513675
aF0.99465240815934064
aa(lp130
F0.99394652363732072
aF0.99496864437813726
aa(lp131
F0.99424920646297055
aF0.99527014281086346
aa(lp132
F0.99453789986002183
aF0.99555753322970586
aa(lp133
F0.99481319175385174
aF0.99583142260135049
aa(lp134
F0.99507564954786931
aF0.99609239555967866
aa(lp135
F0.99532582067874464
aF0.99634101499174088
aa(lp136
F0.99556423282508111
aF0.99657782253240612
aa(lp137
F0.99579139457024135
aF0.99680333917433583
aa(lp138
F0.99600779555668595
aF0.99701806575922347
aa(lp139
F0.99621390726272574
aF0.99722248362298993
aa(lp140
F0.99641018310600371
aF0.9974170550733481
aa(lp141
F0.99659705924839781
aF0.99760222403574428
aa(lp142
F0.99677495482327061
aF0.9977784165431739
aa(lp143
F0.99694427254838069
aF0.99794604136362142
aa(lp144
F0.99710539915212193
aF0.99810549049114983
aa(lp145
F0.99725870577926334
aF0.99825713974038921
aa(lp146
F0.99740454881287754
aF0.99840134929275481
aa(lp147
F0.9975432694651577
aF0.99853846409596025
aa(lp148
F0.99767519632771851
aF0.99866881483652681
aa(lp149
F0.9978006409293102
aF0.9987927172170169
aa(lp150
F0.99791990943986575
aF0.99891047574972702
aa(lp151
F0.99803327748379578
aF0.99902237545422079
aa(lp152
F0.99814105578285084
aF0.99912870897829587
aa.