(lp1
(lp2
F0.81173681088359662
aF0.5396119956979718
aa(lp3
F0.83133955800218451
aF0.58194481723082747
aa(lp4
F0.85719664693799869
aF0.63428694377079542
aa(lp5
F0.88839305993230466
aF0.69475270001632827
aa(lp6
F0.92440418692756365
aF0.75776076314143281
aa(lp7
F0.9616015384704647
aF0.8207132894446808
aa(lp8
F0.99664425996620276
aF0.88181254904205475
aa(lp9
F1.0279451466021492
aF0.93904105886919886
aa(lp10
F1.0540779087168888
aF0.99084405274197207
aa(lp11
F1.0740196041112204
aF1.0365328286902549
aa(lp12
F1.0878306301378478
aF1.0756147988965419
aa(lp13
F1.0961480087551003
aF1.1077851337862394
aa(lp14
F1.099662556321223
aF1.1331625410927786
aa(lp15
F1.0990709858274801
aF1.1522299904587632
aa(lp16
F1.0951434239803621
aF1.1656282091987431
aa(lp17
F1.0886726179013708
aF1.1740466311036126
aa(lp18
F1.0803931333494758
aF1.1781850665574987
aa(lp19
F1.0709311318000405
aF1.1787339117600089
aa(lp20
F1.0607924927598074
aF1.1763555639505099
aa(lp21
F1.0503730366706938
aF1.1716614297464139
aa(lp22
F1.0399751872998146
aF1.1651953357603537
aa(lp23
F1.0298228101279938
aF1.1574252680727
aa(lp24
F1.0200735720161822
aF1.1487437235689879
aa(lp25
F1.0108305212067548
aF1.1394721204500573
aa(lp26
F1.0021533053691178
aF1.1298687609464648
aa(lp27
F0.99406847782435181
aF1.1201370618490853
aa(lp28
F0.98657891844714196
aF1.110434248064182
aa(lp29
F0.97967190937756699
aF1.1008793059686088
aa(lp30
F0.97332550636300319
aF1.091560488889368
aa(lp31
F0.96751336883107608
aF1.0825418992839151
aa(lp32
F0.96220809230491922
aF1.0738690711048722
aa(lp33
F0.95738321756527711
aF1.0655732978049341
aa(lp34
F0.9530142474551978
aF1.0576750574782423
aa(lp35
F0.94907883751364686
aF1.050186573248747
aa(lp36
F0.94555639138907244
aF1.0431136151226548
aa(lp37
F0.94242733007559487
aF1.0364567137858516
aa(lp38
F0.93967221994437566
aF1.0302120339478491
aa(lp39
F0.93727100123328133
aF1.024372049061911
aa(lp40
F0.93520247934313183
aF1.018926138537128
aa(lp41
F0.93344419057194861
aF1.0138611994321169
aa(lp42
F0.93197267747948354
aF1.0091622848087511
aa(lp43
F0.93076411655554137
aF1.0048132542015435
aa(lp44
F0.92979516007265584
aF1.0007974152908443
aa(lp45
F0.92904384125331996
aF0.9970981136534276
aa(lp46
F0.92849037855627325
aF0.99369920383294352
aa(lp47
F0.92811772084889921
aF0.99058535666525849
aa(lp48
F0.92791172796121912
aF0.98774218397967684
aa(lp49
F0.92786095498901
aF0.98515618924670501
aa(lp50
F0.92795608699904786
aF0.98281457923338211
aa(lp51
F0.92818913699740691
aF0.98070499605806694
aa(lp52
F0.92855256610973258
aF0.97881524074478332
aa(lp53
F0.92903849769353508
aF0.9771330561873689
aa(lp54
F0.92963817389597347
aF0.97564602331233785
aa(lp55
F0.93034175170234812
aF0.97434159787197483
aa(lp56
F0.93113846377756559
aF0.97320728083819674
aa(lp57
F0.93201708977986897
aF0.97223088201128571
aa(lp58
F0.93296661620232091
aF0.97140081407373069
aa(lp59
F0.93397692333422255
aF0.97070634649215792
aa(lp60
F0.93503933555280216
aF0.97013775767576715
aa(lp61
F0.93614690757640096
aF0.96968634868092629
aa(lp62
F0.9372943863329426
aF0.96934431658648113
aa(lp63
F0.93847786935023014
aF0.96910452084455068
aa(lp64
F0.93969425553002184
aF0.96896020299328467
aa(lp65
F0.94094063343968093
aF0.96890473069421368
aa(lp66
F0.94221376232449305
aF0.96893142782967345
aa(lp67
F0.94350976852839952
aF0.96903352687473954
aa(lp68
F0.94482411521106258
aF0.96920424403749172
aa(lp69
F0.94615182487408966
aF0.96943694315355089
aa(lp70
F0.94748786488726222
aF0.96972533144324491
aa(lp71
F0.94882756719558947
aF0.97006362476123953
aa(lp72
F0.95016695542167895
aF0.97044663530126984
aa(lp73
F0.95150289238647401
aF0.97086976006790249
aa(lp74
F0.95283302511054868
aF0.97132888466118728
aa(lp75
F0.95415557025970898
aF0.97182023927225392
aa(lp76
F0.95546902788507337
aF0.97234025535010005
aa(lp77
F0.95677192192496863
aF0.97288546486058147
aa(lp78
F0.95806264333461255
aF0.97345246297313492
aa(lp79
F0.95933942362864322
aF0.97403793201289979
aa(lp80
F0.96060041908112359
aF0.97463870246684825
aa(lp81
F0.96184385025030505
aF0.97525181931515037
aa(lp82
F0.96306813323351748
aF0.97587458645879444
aa(lp83
F0.96427195590263881
aF0.97650457588738926
aa(lp84
F0.96545428347399276
aF0.97713960425522262
aa(lp85
F0.96661430801320547
aF0.97777769117954649
aa(lp86
F0.96775137422245427
aF0.97841701682045112
aa(lp87
F0.96886491422091103
aF0.97905589185975916
aa(lp88
F0.96995441111853364
aF0.9796927444239204
aa(lp89
F0.97101939370752621
aF0.9803261203177841
aa(lp90
F0.97205945116887327
aF0.98095468881381731
aa(lp91
F0.97307425208176856
aF0.98157724669825785
aa(lp92
F0.97406355610402096
aF0.98219271667272134
aa(lp93
F0.97502721387326075
aF0.98280014022514595
aa(lp94
F0.97596515806049244
aF0.98339866758763395
aa(lp95
F0.97687739107851757
aF0.98398754760293194
aa(lp96
F0.97776397430649709
aF0.98456611930909299
aa(lp97
F0.97862502082924785
aF0.98513380556397423
aa(lp98
F0.97946069131942426
aF0.98569010802563006
aa(lp99
F0.98027119140801633
aF0.9862346026012947
aa(lp100
F0.98105676910051609
aF0.98676693484184519
aa(lp101
F0.98181771162438258
aF0.98728681511174876
aa(lp102
F0.98255434178481393
aF0.98779401373860509
aa(lp103
F0.98326701410549477
aF0.98828835626610567
aa(lp104
F0.98395611129457428
aF0.98876971903147204
aa(lp105
F0.98462204084558447
aF0.98923802497216773
aa(lp106
F0.98526523211923644
aF0.98969323974350065
aa(lp107
F0.98588613344873166
aF0.99013536800833013
aa(lp108
F0.98648520955904795
aF0.99056444994801962
aa(lp109
F0.98706293900149589
aF0.99098055795037088
aa(lp110
F0.98761981188302905
aF0.99138379350611106
aa(lp111
F0.98815632758234739
aF0.99177428423307046
aa(lp112
F0.98867299269615372
aF0.99215218116160331
aa(lp113
F0.98917031919885967
aF0.99251765613034582
aa(lp114
F0.98964882255574527
aF0.99287089936586836
aa(lp115
F0.99010902017817315
aF0.9932121172516678
aa(lp116
F0.99055142983816014
aF0.99354153021326941
aa(lp117
F0.99097656835479275
aF0.99385937077246977
aa(lp118
F0.99138495022379969
aF0.99416588174246523
aa(lp119
F0.99177708657302488
aF0.99446131454984321
aa(lp120
F0.99215348401625347
aF0.99474592769306169
aa(lp121
F0.99251464375068277
aF0.99501998531598301
aa(lp122
F0.99286106070121805
aF0.99528375590489415
aa(lp123
F0.99319322274817645
aF0.99553751108693156
aa(lp124
F0.99351161006202415
aF0.99578152453428537
aa(lp125
F0.99381669449072907
aF0.99601607097664902
aa(lp126
F0.99410893906774644
aF0.99624142527852455
aa(lp127
F0.99438879754499476
aF0.99645786164055861
aa(lp128
F0.99465671403028211
aF0.99666565283833441
aa(lp129
F0.9949131226189124
aF0.99686506957686716
aa(lp130
F0.9951584472213606
aF0.99705637988997398
aa(lp131
F0.99539310126565639
aF0.99723984861406656
aa(lp132
F0.99561748757201662
aF0.99741573691145324
aa(lp133
F0.99583199828113733
aF0.99758430189111058
aa(lp134
F0.99603701467061057
aF0.99774579620706005
aa(lp135
F0.99623290727294711
aF0.99790046779580888
aa(lp136
F0.99642003568843363
aF0.99804855956984762
aa(lp137
F0.99659874884749011
aF0.99819030924018937
aa(lp138
F0.99676938479027777
aF0.99832594907973204
aa(lp139
F0.99693227106422
aF0.99845570584049737
aa(lp140
F0.9970877245059897
aF0.99857980055896567
aa(lp141
F0.9972360516750598
aF0.99869844854262102
aa(lp142
F0.99737754875405171
aF0.99881185924400917
aa(lp143
F0.99751250188518481
aF0.99892023628025717
aa(lp144
F0.99764118721525874
aF0.99902377736682257
aa(lp145
F0.99776387118639198
aF0.99912267435861957
aa(lp146
F0.99788081067396561
aF0.99921711325671281
aa(lp147
F0.99799225318999718
aF0.99930727422460641
aa(lp148
F0.99809843729748782
aF0.99939333172795375
aa(lp149
F0.9981995920442992
aF0.99947545436195806
aa(lp150
F0.99829593931916627
aF0.99955380553293216
aa(lp151
F0.99838768888861673
aF0.99962854192495465
aa(lp152
F0.99847505306165218
aF0.99969981878796643
aa.